target datalayout = "e-m:e-p270:32:32-p271:32:32-p272:64:64-i64:64-i128:128-f80:128-n8:16:32:64-S128"
target triple = "x86_64-pc-linux-gnu"

%"class.ncnn::Mat" = type { ptr, ptr, i64, i32, ptr, i32, i32, i32, i32, i32, i64 }

; Function Attrs: mustprogress uwtable
define hidden void @ncnn_flatten(ptr noundef %0, ptr noundef %1, ptr noundef %2) #1 personality ptr @__gxx_personality_v0 {
  %4 = alloca ptr, align 8
  %5 = alloca i32, align 4
  %6 = alloca i32, align 4
  %7 = alloca ptr, align 8
  %8 = alloca ptr, align 8
  %9 = alloca ptr, align 8
  %10 = alloca i32, align 4
  %11 = alloca i32, align 4
  %12 = alloca ptr, align 8
  %13 = alloca i32, align 4
  %14 = alloca i32, align 4
  %15 = alloca ptr, align 8
  %16 = alloca ptr, align 8
  %17 = alloca ptr, align 8
  %18 = alloca ptr, align 8
  %19 = alloca ptr, align 8
  %20 = alloca ptr, align 8
  %21 = alloca ptr, align 8
  %22 = alloca ptr, align 8
  %23 = alloca %"class.ncnn::Mat", align 8
  %24 = alloca ptr, align 8
  %25 = alloca i32, align 4
  store ptr %0, ptr %20, align 8
  store ptr %1, ptr %21, align 8
  store ptr %2, ptr %22, align 8
  store ptr %23, ptr %19, align 8
  %26 = load ptr, ptr %19, align 8
  store ptr null, ptr %26, align 8
  %27 = getelementptr inbounds nuw %"class.ncnn::Mat", ptr %26, i32 0, i32 1
  store ptr null, ptr %27, align 8
  %28 = getelementptr inbounds nuw %"class.ncnn::Mat", ptr %26, i32 0, i32 2
  store i64 0, ptr %28, align 8
  %29 = getelementptr inbounds nuw %"class.ncnn::Mat", ptr %26, i32 0, i32 3
  store i32 0, ptr %29, align 8
  %30 = getelementptr inbounds nuw %"class.ncnn::Mat", ptr %26, i32 0, i32 4
  store ptr null, ptr %30, align 8
  %31 = getelementptr inbounds nuw %"class.ncnn::Mat", ptr %26, i32 0, i32 5
  store i32 0, ptr %31, align 8
  %32 = getelementptr inbounds nuw %"class.ncnn::Mat", ptr %26, i32 0, i32 6
  store i32 0, ptr %32, align 4
  %33 = getelementptr inbounds nuw %"class.ncnn::Mat", ptr %26, i32 0, i32 7
  store i32 0, ptr %33, align 8
  %34 = getelementptr inbounds nuw %"class.ncnn::Mat", ptr %26, i32 0, i32 8
  store i32 0, ptr %34, align 4
  %35 = getelementptr inbounds nuw %"class.ncnn::Mat", ptr %26, i32 0, i32 9
  store i32 0, ptr %35, align 8
  %36 = getelementptr inbounds nuw %"class.ncnn::Mat", ptr %26, i32 0, i32 10
  store i64 0, ptr %36, align 8
  %37 = load ptr, ptr %20, align 8
  %38 = load ptr, ptr %22, align 8
  invoke void @_ZN4ncnn7flattenERKNS_3MatERS0_RKNS_6OptionE(ptr noundef nonnull align 8 dereferenceable(72) %37, ptr noundef nonnull align 8 dereferenceable(72) %23, ptr noundef nonnull align 8 dereferenceable(64) %38)
          to label %39 unwind label %143

39:                                               ; preds = %3
  %40 = invoke noalias noundef nonnull ptr @_Znwm(i64 noundef 72) #13
          to label %41 unwind label %143

41:                                               ; preds = %39
  store ptr %40, ptr %15, align 8
  store ptr %23, ptr %16, align 8
  %42 = load ptr, ptr %15, align 8
  %43 = load ptr, ptr %16, align 8
  %44 = load ptr, ptr %43, align 8
  store ptr %44, ptr %42, align 8
  %45 = getelementptr inbounds nuw %"class.ncnn::Mat", ptr %42, i32 0, i32 1
  %46 = load ptr, ptr %16, align 8
  %47 = getelementptr inbounds nuw %"class.ncnn::Mat", ptr %46, i32 0, i32 1
  %48 = load ptr, ptr %47, align 8
  store ptr %48, ptr %45, align 8
  %49 = getelementptr inbounds nuw %"class.ncnn::Mat", ptr %42, i32 0, i32 2
  %50 = load ptr, ptr %16, align 8
  %51 = getelementptr inbounds nuw %"class.ncnn::Mat", ptr %50, i32 0, i32 2
  %52 = load i64, ptr %51, align 8
  store i64 %52, ptr %49, align 8
  %53 = getelementptr inbounds nuw %"class.ncnn::Mat", ptr %42, i32 0, i32 3
  %54 = load ptr, ptr %16, align 8
  %55 = getelementptr inbounds nuw %"class.ncnn::Mat", ptr %54, i32 0, i32 3
  %56 = load i32, ptr %55, align 8
  store i32 %56, ptr %53, align 8
  %57 = getelementptr inbounds nuw %"class.ncnn::Mat", ptr %42, i32 0, i32 4
  %58 = load ptr, ptr %16, align 8
  %59 = getelementptr inbounds nuw %"class.ncnn::Mat", ptr %58, i32 0, i32 4
  %60 = load ptr, ptr %59, align 8
  store ptr %60, ptr %57, align 8
  %61 = getelementptr inbounds nuw %"class.ncnn::Mat", ptr %42, i32 0, i32 5
  %62 = load ptr, ptr %16, align 8
  %63 = getelementptr inbounds nuw %"class.ncnn::Mat", ptr %62, i32 0, i32 5
  %64 = load i32, ptr %63, align 8
  store i32 %64, ptr %61, align 8
  %65 = getelementptr inbounds nuw %"class.ncnn::Mat", ptr %42, i32 0, i32 6
  %66 = load ptr, ptr %16, align 8
  %67 = getelementptr inbounds nuw %"class.ncnn::Mat", ptr %66, i32 0, i32 6
  %68 = load i32, ptr %67, align 4
  store i32 %68, ptr %65, align 4
  %69 = getelementptr inbounds nuw %"class.ncnn::Mat", ptr %42, i32 0, i32 7
  %70 = load ptr, ptr %16, align 8
  %71 = getelementptr inbounds nuw %"class.ncnn::Mat", ptr %70, i32 0, i32 7
  %72 = load i32, ptr %71, align 8
  store i32 %72, ptr %69, align 8
  %73 = getelementptr inbounds nuw %"class.ncnn::Mat", ptr %42, i32 0, i32 8
  %74 = load ptr, ptr %16, align 8
  %75 = getelementptr inbounds nuw %"class.ncnn::Mat", ptr %74, i32 0, i32 8
  %76 = load i32, ptr %75, align 4
  store i32 %76, ptr %73, align 4
  %77 = getelementptr inbounds nuw %"class.ncnn::Mat", ptr %42, i32 0, i32 9
  %78 = load ptr, ptr %16, align 8
  %79 = getelementptr inbounds nuw %"class.ncnn::Mat", ptr %78, i32 0, i32 9
  %80 = load i32, ptr %79, align 8
  store i32 %80, ptr %77, align 8
  %81 = getelementptr inbounds nuw %"class.ncnn::Mat", ptr %42, i32 0, i32 10
  %82 = load ptr, ptr %16, align 8
  %83 = getelementptr inbounds nuw %"class.ncnn::Mat", ptr %82, i32 0, i32 10
  %84 = load i64, ptr %83, align 8
  store i64 %84, ptr %81, align 8
  store ptr %42, ptr %4, align 8
  %85 = load ptr, ptr %4, align 8
  %86 = getelementptr inbounds nuw %"class.ncnn::Mat", ptr %85, i32 0, i32 1
  %87 = load ptr, ptr %86, align 8
  %88 = icmp ne ptr %87, null
  br i1 %88, label %89, label %94

89:                                               ; preds = %41
  %90 = getelementptr inbounds nuw %"class.ncnn::Mat", ptr %85, i32 0, i32 1
  %91 = load ptr, ptr %90, align 8
  store i32 1, ptr %5, align 4
  %92 = load i32, ptr %5, align 4
  %93 = atomicrmw add ptr %91, i32 %92 acq_rel, align 4
  store i32 %93, ptr %6, align 4
  br label %94

94:                                               ; preds = %89, %41
  br label %95

95:                                               ; preds = %94
  %96 = load ptr, ptr %21, align 8
  store ptr %40, ptr %96, align 8
  store ptr %23, ptr %18, align 8
  %97 = load ptr, ptr %18, align 8
  store ptr %97, ptr %9, align 8
  %98 = load ptr, ptr %9, align 8
  %99 = getelementptr inbounds nuw %"class.ncnn::Mat", ptr %98, i32 0, i32 1
  %100 = load ptr, ptr %99, align 8
  %101 = icmp ne ptr %100, null
  br i1 %101, label %102, label %129

102:                                              ; preds = %95
  %103 = getelementptr inbounds nuw %"class.ncnn::Mat", ptr %98, i32 0, i32 1
  %104 = load ptr, ptr %103, align 8
  store i32 -1, ptr %10, align 4
  %105 = load i32, ptr %10, align 4
  %106 = atomicrmw add ptr %104, i32 %105 acq_rel, align 4
  store i32 %106, ptr %11, align 4
  %107 = load i32, ptr %11, align 4
  %108 = icmp eq i32 %107, 1
  br i1 %108, label %109, label %129

109:                                              ; preds = %102
  %110 = getelementptr inbounds nuw %"class.ncnn::Mat", ptr %98, i32 0, i32 4
  %111 = load ptr, ptr %110, align 8
  %112 = icmp ne ptr %111, null
  br i1 %112, label %113, label %121

113:                                              ; preds = %109
  %114 = getelementptr inbounds nuw %"class.ncnn::Mat", ptr %98, i32 0, i32 4
  %115 = load ptr, ptr %114, align 8
  %116 = load ptr, ptr %98, align 8
  %117 = load ptr, ptr %115, align 8
  %118 = getelementptr inbounds ptr, ptr %117, i64 3
  %119 = load ptr, ptr %118, align 8
  invoke void %119(ptr noundef nonnull align 8 dereferenceable(8) %115, ptr noundef %116)
          to label %120 unwind label %139

120:                                              ; preds = %113
  br label %128

121:                                              ; preds = %109
  %122 = load ptr, ptr %98, align 8
  store ptr %122, ptr %8, align 8
  %123 = load ptr, ptr %8, align 8
  %124 = icmp ne ptr %123, null
  br i1 %124, label %125, label %127

125:                                              ; preds = %121
  %126 = load ptr, ptr %8, align 8
  call void @free(ptr noundef %126) #15
  br label %127

127:                                              ; preds = %125, %121
  br label %128

128:                                              ; preds = %127, %120
  br label %129

129:                                              ; preds = %128, %102, %95
  store ptr null, ptr %98, align 8
  %130 = getelementptr inbounds nuw %"class.ncnn::Mat", ptr %98, i32 0, i32 2
  store i64 0, ptr %130, align 8
  %131 = getelementptr inbounds nuw %"class.ncnn::Mat", ptr %98, i32 0, i32 3
  store i32 0, ptr %131, align 8
  %132 = getelementptr inbounds nuw %"class.ncnn::Mat", ptr %98, i32 0, i32 5
  store i32 0, ptr %132, align 8
  %133 = getelementptr inbounds nuw %"class.ncnn::Mat", ptr %98, i32 0, i32 6
  store i32 0, ptr %133, align 4
  %134 = getelementptr inbounds nuw %"class.ncnn::Mat", ptr %98, i32 0, i32 7
  store i32 0, ptr %134, align 8
  %135 = getelementptr inbounds nuw %"class.ncnn::Mat", ptr %98, i32 0, i32 8
  store i32 0, ptr %135, align 4
  %136 = getelementptr inbounds nuw %"class.ncnn::Mat", ptr %98, i32 0, i32 9
  store i32 0, ptr %136, align 8
  %137 = getelementptr inbounds nuw %"class.ncnn::Mat", ptr %98, i32 0, i32 10
  store i64 0, ptr %137, align 8
  %138 = getelementptr inbounds nuw %"class.ncnn::Mat", ptr %98, i32 0, i32 1
  store ptr null, ptr %138, align 8
  br label %142

139:                                              ; preds = %113
  %140 = landingpad { ptr, i32 }
          catch ptr null
  %141 = extractvalue { ptr, i32 } %140, 0
  call void @__clang_call_terminate(ptr %141) #16
  unreachable

142:                                              ; preds = %129
  ret void

143:                                              ; preds = %39, %3
  %144 = landingpad { ptr, i32 }
          cleanup
  %145 = extractvalue { ptr, i32 } %144, 0
  store ptr %145, ptr %24, align 8
  %146 = extractvalue { ptr, i32 } %144, 1
  store i32 %146, ptr %25, align 4
  br label %151

147:                                              ; No predecessors!
  %148 = landingpad { ptr, i32 }
          cleanup
  %149 = extractvalue { ptr, i32 } %148, 0
  store ptr %149, ptr %24, align 8
  %150 = extractvalue { ptr, i32 } %148, 1
  store i32 %150, ptr %25, align 4
  call void @_ZdlPvm(ptr noundef %40, i64 noundef 72) #14
  br label %151

151:                                              ; preds = %147, %143
  store ptr %23, ptr %17, align 8
  %152 = load ptr, ptr %17, align 8
  store ptr %152, ptr %12, align 8
  %153 = load ptr, ptr %12, align 8
  %154 = getelementptr inbounds nuw %"class.ncnn::Mat", ptr %153, i32 0, i32 1
  %155 = load ptr, ptr %154, align 8
  %156 = icmp ne ptr %155, null
  br i1 %156, label %157, label %184

157:                                              ; preds = %151
  %158 = getelementptr inbounds nuw %"class.ncnn::Mat", ptr %153, i32 0, i32 1
  %159 = load ptr, ptr %158, align 8
  store i32 -1, ptr %13, align 4
  %160 = load i32, ptr %13, align 4
  %161 = atomicrmw add ptr %159, i32 %160 acq_rel, align 4
  store i32 %161, ptr %14, align 4
  %162 = load i32, ptr %14, align 4
  %163 = icmp eq i32 %162, 1
  br i1 %163, label %164, label %184

164:                                              ; preds = %157
  %165 = getelementptr inbounds nuw %"class.ncnn::Mat", ptr %153, i32 0, i32 4
  %166 = load ptr, ptr %165, align 8
  %167 = icmp ne ptr %166, null
  br i1 %167, label %168, label %176

168:                                              ; preds = %164
  %169 = getelementptr inbounds nuw %"class.ncnn::Mat", ptr %153, i32 0, i32 4
  %170 = load ptr, ptr %169, align 8
  %171 = load ptr, ptr %153, align 8
  %172 = load ptr, ptr %170, align 8
  %173 = getelementptr inbounds ptr, ptr %172, i64 3
  %174 = load ptr, ptr %173, align 8
  invoke void %174(ptr noundef nonnull align 8 dereferenceable(8) %170, ptr noundef %171)
          to label %175 unwind label %194

175:                                              ; preds = %168
  br label %183

176:                                              ; preds = %164
  %177 = load ptr, ptr %153, align 8
  store ptr %177, ptr %7, align 8
  %178 = load ptr, ptr %7, align 8
  %179 = icmp ne ptr %178, null
  br i1 %179, label %180, label %182

180:                                              ; preds = %176
  %181 = load ptr, ptr %7, align 8
  call void @free(ptr noundef %181) #15
  br label %182

182:                                              ; preds = %180, %176
  br label %183

183:                                              ; preds = %182, %175
  br label %184

184:                                              ; preds = %183, %157, %151
  store ptr null, ptr %153, align 8
  %185 = getelementptr inbounds nuw %"class.ncnn::Mat", ptr %153, i32 0, i32 2
  store i64 0, ptr %185, align 8
  %186 = getelementptr inbounds nuw %"class.ncnn::Mat", ptr %153, i32 0, i32 3
  store i32 0, ptr %186, align 8
  %187 = getelementptr inbounds nuw %"class.ncnn::Mat", ptr %153, i32 0, i32 5
  store i32 0, ptr %187, align 8
  %188 = getelementptr inbounds nuw %"class.ncnn::Mat", ptr %153, i32 0, i32 6
  store i32 0, ptr %188, align 4
  %189 = getelementptr inbounds nuw %"class.ncnn::Mat", ptr %153, i32 0, i32 7
  store i32 0, ptr %189, align 8
  %190 = getelementptr inbounds nuw %"class.ncnn::Mat", ptr %153, i32 0, i32 8
  store i32 0, ptr %190, align 4
  %191 = getelementptr inbounds nuw %"class.ncnn::Mat", ptr %153, i32 0, i32 9
  store i32 0, ptr %191, align 8
  %192 = getelementptr inbounds nuw %"class.ncnn::Mat", ptr %153, i32 0, i32 10
  store i64 0, ptr %192, align 8
  %193 = getelementptr inbounds nuw %"class.ncnn::Mat", ptr %153, i32 0, i32 1
  store ptr null, ptr %193, align 8
  br label %197

194:                                              ; preds = %168
  %195 = landingpad { ptr, i32 }
          catch ptr null
  %196 = extractvalue { ptr, i32 } %195, 0
  call void @__clang_call_terminate(ptr %196) #16
  unreachable

197:                                              ; preds = %184
  br label %198

198:                                              ; preds = %197
  %199 = load ptr, ptr %24, align 8
  %200 = load i32, ptr %25, align 4
  %201 = insertvalue { ptr, i32 } poison, ptr %199, 0
  %202 = insertvalue { ptr, i32 } %201, i32 %200, 1
  resume { ptr, i32 } %202
}