; Function Attrs: mustprogress uwtable
define hidden void @ncnn_flatten(ptr noundef nonnull %0, ptr nocapture noundef writeonly %1, ptr noundef nonnull %2) local_unnamed_addr #1 personality ptr @__gxx_personality_v0 {
  %4 = alloca %"class.ncnn::Mat", align 8
  %5 = getelementptr inbounds nuw i8, ptr %4, i64 8
  %6 = getelementptr inbounds nuw i8, ptr %4, i64 16
  %7 = getelementptr inbounds nuw i8, ptr %4, i64 24
  %8 = getelementptr inbounds nuw i8, ptr %4, i64 32
  %9 = getelementptr inbounds nuw i8, ptr %4, i64 40
  %10 = getelementptr inbounds nuw i8, ptr %4, i64 44
  %11 = getelementptr inbounds nuw i8, ptr %4, i64 48
  %12 = getelementptr inbounds nuw i8, ptr %4, i64 52
  %13 = getelementptr inbounds nuw i8, ptr %4, i64 56
  %14 = getelementptr inbounds nuw i8, ptr %4, i64 64
  store i64 0, ptr %14, align 8
  call void @llvm.memset.p0.i64(ptr noundef nonnull align 8 dereferenceable(28) %4, i8 0, i64 28, i1 false)
  call void @llvm.memset.p0.i64(ptr noundef nonnull align 8 dereferenceable(28) %8, i8 0, i64 28, i1 false)
  invoke void @_ZN4ncnn7flattenERKNS_3MatERS0_RKNS_6OptionE(ptr noundef nonnull align 8 dereferenceable(72) %0, ptr noundef nonnull align 8 dereferenceable(72) %4, ptr noundef nonnull align 8 dereferenceable(64) %2)
          to label %15 unwind label %57

15:                                               ; preds = %3
  %16 = invoke noalias noundef nonnull dereferenceable(72) ptr @_Znwm(i64 noundef 72) #24
          to label %17 unwind label %57

17:                                               ; preds = %15
  %18 = load ptr, ptr %4, align 8
  store ptr %18, ptr %16, align 8
  %19 = getelementptr inbounds nuw i8, ptr %16, i64 8
  %20 = load ptr, ptr %5, align 8
  store ptr %20, ptr %19, align 8
  %21 = getelementptr inbounds nuw i8, ptr %16, i64 16
  %22 = load i64, ptr %6, align 8
  store i64 %22, ptr %21, align 8
  %23 = getelementptr inbounds nuw i8, ptr %16, i64 24
  %24 = load i32, ptr %7, align 8
  store i32 %24, ptr %23, align 8
  %25 = getelementptr inbounds nuw i8, ptr %16, i64 32
  %26 = load ptr, ptr %8, align 8
  store ptr %26, ptr %25, align 8
  %27 = getelementptr inbounds nuw i8, ptr %16, i64 40
  %28 = load i32, ptr %9, align 8
  store i32 %28, ptr %27, align 8
  %29 = getelementptr inbounds nuw i8, ptr %16, i64 44
  %30 = load i32, ptr %10, align 4
  store i32 %30, ptr %29, align 4
  %31 = getelementptr inbounds nuw i8, ptr %16, i64 48
  %32 = load i32, ptr %11, align 8
  store i32 %32, ptr %31, align 8
  %33 = getelementptr inbounds nuw i8, ptr %16, i64 52
  %34 = load i32, ptr %12, align 4
  store i32 %34, ptr %33, align 4
  %35 = getelementptr inbounds nuw i8, ptr %16, i64 56
  %36 = load i32, ptr %13, align 8
  store i32 %36, ptr %35, align 8
  %37 = getelementptr inbounds nuw i8, ptr %16, i64 64
  %38 = load i64, ptr %14, align 8
  store i64 %38, ptr %37, align 8
  %.not39 = icmp eq ptr %20, null
  br i1 %.not39, label %.thread, label %39

.thread:                                          ; preds = %17
  store ptr %16, ptr %1, align 8
  br label %53

39:                                               ; preds = %17
  %40 = atomicrmw add ptr %20, i32 1 acq_rel, align 4
  %.pre = load ptr, ptr %5, align 8
  store ptr %16, ptr %1, align 8
  %.not40 = icmp eq ptr %.pre, null
  br i1 %.not40, label %53, label %41

41:                                               ; preds = %39
  %42 = atomicrmw add ptr %.pre, i32 -1 acq_rel, align 4
  %43 = icmp eq i32 %42, 1
  br i1 %43, label %44, label %53

44:                                               ; preds = %41
  %45 = load ptr, ptr %8, align 8
  %.not41 = icmp eq ptr %45, null
  %46 = load ptr, ptr %4, align 8
  br i1 %.not41, label %51, label %47

47:                                               ; preds = %44
  %48 = load ptr, ptr %45, align 8
  %49 = getelementptr inbounds i8, ptr %48, i64 24
  %50 = load ptr, ptr %49, align 8
  invoke void %50(ptr noundef nonnull align 8 dereferenceable(8) %45, ptr noundef %46)
          to label %53 unwind label %54

51:                                               ; preds = %44
  %.not42 = icmp eq ptr %46, null
  br i1 %.not42, label %53, label %52

52:                                               ; preds = %51
  call void @free(ptr noundef nonnull %46) #26
  br label %53

53:                                               ; preds = %.thread, %47, %52, %51, %41, %39
  ret void

54:                                               ; preds = %47
  %55 = landingpad { ptr, i32 }
          catch ptr null
  %56 = extractvalue { ptr, i32 } %55, 0
  call void @__clang_call_terminate(ptr %56) #27
  unreachable

57:                                               ; preds = %15, %3
  %58 = landingpad { ptr, i32 }
          cleanup
  %59 = load ptr, ptr %5, align 8
  %.not = icmp eq ptr %59, null
  br i1 %.not, label %72, label %60

60:                                               ; preds = %57
  %61 = atomicrmw add ptr %59, i32 -1 acq_rel, align 4
  %62 = icmp eq i32 %61, 1
  br i1 %62, label %63, label %72

63:                                               ; preds = %60
  %64 = load ptr, ptr %8, align 8
  %.not37 = icmp eq ptr %64, null
  %65 = load ptr, ptr %4, align 8
  br i1 %.not37, label %70, label %66

66:                                               ; preds = %63
  %67 = load ptr, ptr %64, align 8
  %68 = getelementptr inbounds i8, ptr %67, i64 24
  %69 = load ptr, ptr %68, align 8
  invoke void %69(ptr noundef nonnull align 8 dereferenceable(8) %64, ptr noundef %65)
          to label %72 unwind label %73

70:                                               ; preds = %63
  %.not38 = icmp eq ptr %65, null
  br i1 %.not38, label %72, label %71

71:                                               ; preds = %70
  call void @free(ptr noundef nonnull %65) #26
  br label %72

72:                                               ; preds = %66, %71, %70, %60, %57
  resume { ptr, i32 } %58

73:                                               ; preds = %66
  %74 = landingpad { ptr, i32 }
          catch ptr null
  %75 = extractvalue { ptr, i32 } %74, 0
  call void @__clang_call_terminate(ptr %75) #27
  unreachable
}